; Function Attrs: mustprogress uwtable
define hidden void @_ZNK7datalog4rule13get_used_varsER9used_vars(ptr nocapture noundef nonnull readonly align 8 dereferenceable(80) %this, ptr noundef nonnull align 8 dereferenceable(48) %used) local_unnamed_addr #3 align 2 {
entry:
  %m_head.i = getelementptr inbounds i8, ptr %this, i64 40
  %0 = load ptr, ptr %m_head.i, align 8
  tail call void @_ZN9used_vars7processEP4exprj(ptr noundef nonnull align 8 dereferenceable(48) %used, ptr noundef %0, i32 noundef 0)
  %m_tail_size.i = getelementptr inbounds i8, ptr %this, i64 56
  %1 = load i32, ptr %m_tail_size.i, align 8
  %cmp4.not = icmp eq i32 %1, 0
  br i1 %cmp4.not, label %for.end, label %for.body.lr.ph

for.body.lr.ph:                                   ; preds = %entry
  %m_tail.i = getelementptr inbounds i8, ptr %this, i64 80
  %wide.trip.count = zext i32 %1 to i64
  br label %for.body

for.body:                                         ; preds = %for.body.lr.ph, %for.body
  %indvars.iv = phi i64 [ 0, %for.body.lr.ph ], [ %indvars.iv.next, %for.body ]
  %arrayidx.i = getelementptr inbounds [0 x ptr], ptr %m_tail.i, i64 0, i64 %indvars.iv
  %2 = load ptr, ptr %arrayidx.i, align 8
  %3 = ptrtoint ptr %2 to i64
  %and.i = and i64 %3, -8
  %4 = inttoptr i64 %and.i to ptr
  tail call void @_ZN9used_vars7processEP4exprj(ptr noundef nonnull align 8 dereferenceable(48) %used, ptr noundef %4, i32 noundef 0)
  %indvars.iv.next = add nuw nsw i64 %indvars.iv, 1
  %exitcond.not = icmp eq i64 %indvars.iv.next, %wide.trip.count
  br i1 %exitcond.not, label %for.end, label %for.body, !llvm.loop !60

for.end:                                          ; preds = %for.body, %entry
  ret void
}